target datalayout = "e-m:e-p270:32:32-p271:32:32-p272:64:64-i64:64-i128:128-f80:128-n8:16:32:64-S128"
target triple = "x86_64-pc-linux-gnu"

@hf_pfcp_bbf_outer_hdr_creation_tunnel_id = internal global i32 0, align 4
@hf_pfcp_bbf_outer_hdr_creation_session_id = internal global i32 0, align 4

; Function Attrs: null_pointer_is_valid sspstrong uwtable
define internal i32 @dissect_pfcp_enterprise_bbf_outer_header_creation(ptr noundef %0, ptr noundef %1, ptr noundef %2, ptr noundef %3) #0 {
  %5 = alloca ptr, align 8
  %6 = alloca ptr, align 8
  %7 = alloca ptr, align 8
  %8 = alloca ptr, align 8
  %9 = alloca i32, align 4
  %10 = alloca i64, align 8
  store ptr %0, ptr %5, align 8
  store ptr %1, ptr %6, align 8
  store ptr %2, ptr %7, align 8
  store ptr %3, ptr %8, align 8
  call void @llvm.lifetime.start.p0(i64 4, ptr %9) #13
  store i32 0, ptr %9, align 4
  call void @llvm.lifetime.start.p0(i64 8, ptr %10) #13
  %11 = load ptr, ptr %7, align 8
  %12 = load ptr, ptr %5, align 8
  %13 = load i32, ptr %9, align 4
  call void @proto_tree_add_bitmask_list_ret_uint64(ptr noundef %11, ptr noundef %12, i32 noundef %13, i32 noundef 2, ptr noundef @dissect_pfcp_enterprise_bbf_outer_header_creation.outer_hdr_desc, i32 noundef 0, ptr noundef %10)
  %14 = load i32, ptr %9, align 4
  %15 = add i32 %14, 2
  store i32 %15, ptr %9, align 4
  %16 = load i64, ptr %10, align 8
  %17 = and i64 %16, 1024
  %18 = icmp ne i64 %17, 0
  br i1 %18, label %19, label %34

19:                                               ; preds = %4
  %20 = load ptr, ptr %7, align 8
  %21 = load i32, ptr @hf_pfcp_bbf_outer_hdr_creation_tunnel_id, align 4
  %22 = load ptr, ptr %5, align 8
  %23 = load i32, ptr %9, align 4
  %24 = call ptr @proto_tree_add_item(ptr noundef %20, i32 noundef %21, ptr noundef %22, i32 noundef %23, i32 noundef 2, i32 noundef 0)
  %25 = load i32, ptr %9, align 4
  %26 = add i32 %25, 2
  store i32 %26, ptr %9, align 4
  %27 = load ptr, ptr %7, align 8
  %28 = load i32, ptr @hf_pfcp_bbf_outer_hdr_creation_session_id, align 4
  %29 = load ptr, ptr %5, align 8
  %30 = load i32, ptr %9, align 4
  %31 = call ptr @proto_tree_add_item(ptr noundef %27, i32 noundef %28, ptr noundef %29, i32 noundef %30, i32 noundef 2, i32 noundef 0)
  %32 = load i32, ptr %9, align 4
  %33 = add i32 %32, 2
  store i32 %33, ptr %9, align 4
  br label %34

34:                                               ; preds = %19, %4
  %35 = load i32, ptr %9, align 4
  call void @llvm.lifetime.end.p0(i64 8, ptr %10) #13
  call void @llvm.lifetime.end.p0(i64 4, ptr %9) #13
  ret i32 %35
}