; Function Attrs: null_pointer_is_valid sspstrong uwtable
define internal range(i32 2, 7) i32 @dissect_pfcp_enterprise_bbf_outer_header_creation(ptr noundef %0, ptr readnone captures(none) %1, ptr noundef %2, ptr readnone captures(none) %3) #0 {
  %5 = alloca i64, align 8
  call void @llvm.lifetime.start.p0(i64 8, ptr nonnull %5) #15
  call void @proto_tree_add_bitmask_list_ret_uint64(ptr noundef %2, ptr noundef %0, i32 noundef 0, i32 noundef 2, ptr noundef nonnull @dissect_pfcp_enterprise_bbf_outer_header_creation.outer_hdr_desc, i32 noundef 0, ptr noundef nonnull %5)
  %6 = load i64, ptr %5, align 8
  %7 = and i64 %6, 1024
  %.not = icmp eq i64 %7, 0
  br i1 %.not, label %13, label %8

8:                                                ; preds = %4
  %9 = load i32, ptr @hf_pfcp_bbf_outer_hdr_creation_tunnel_id, align 4
  %10 = call ptr @proto_tree_add_item(ptr noundef %2, i32 noundef %9, ptr noundef %0, i32 noundef 2, i32 noundef 2, i32 noundef 0)
  %11 = load i32, ptr @hf_pfcp_bbf_outer_hdr_creation_session_id, align 4
  %12 = call ptr @proto_tree_add_item(ptr noundef %2, i32 noundef %11, ptr noundef %0, i32 noundef 4, i32 noundef 2, i32 noundef 0)
  br label %13

13:                                               ; preds = %8, %4
  %.0 = phi i32 [ 6, %8 ], [ 2, %4 ]
  call void @llvm.lifetime.end.p0(i64 8, ptr nonnull %5) #15
  ret i32 %.0
}